; Function Attrs: nounwind uwtable
define internal void @tt_face_free_sbit(ptr noundef %0) #0 {
  %2 = getelementptr inbounds i8, ptr %0, i64 192
  %3 = load ptr, ptr %2, align 8
  %4 = getelementptr inbounds i8, ptr %0, i64 1328
  tail call void @FT_Stream_ReleaseFrame(ptr noundef %3, ptr noundef nonnull %4) #26
  %5 = getelementptr inbounds i8, ptr %0, i64 1336
  tail call void @llvm.memset.p0.i64(ptr noundef nonnull align 8 dereferenceable(16) %5, i8 0, i64 16, i1 false)
  ret void
}